target datalayout = "e-m:e-p270:32:32-p271:32:32-p272:64:64-i64:64-i128:128-f80:128-n8:16:32:64-S128"
target triple = "x86_64-pc-linux-gnu"

%struct.RBasic = type { i64, i64 }

@rb_eArgError = external global i64, align 8
@.str.54 = private unnamed_addr constant [23 x i8] c"duplicate member: %li\0B\00", align 1
@.str.62 = private unnamed_addr constant [26 x i8] c"invalid data member: %li\0B\00", align 1

; Function Attrs: inlinehint nounwind sspstrong uwtable
define internal void @RBASIC_SET_CLASS_RAW(i64 noundef %0, i64 noundef %1) #1 {
  %3 = alloca i64, align 8
  %4 = alloca i64, align 8
  %5 = alloca ptr, align 8
  store i64 %0, ptr %3, align 8, !tbaa !7
  store i64 %1, ptr %4, align 8, !tbaa !7
  call void @llvm.lifetime.start.p0(i64 8, ptr %5) #26
  %6 = load i64, ptr %3, align 8, !tbaa !7
  %7 = inttoptr i64 %6 to ptr
  %8 = getelementptr inbounds nuw %struct.RBasic, ptr %7, i32 0, i32 1
  store ptr %8, ptr %5, align 8, !tbaa !28
  %9 = load i64, ptr %4, align 8, !tbaa !7
  %10 = load ptr, ptr %5, align 8, !tbaa !28
  store i64 %9, ptr %10, align 8, !tbaa !7
  call void @llvm.lifetime.end.p0(i64 8, ptr %5) #26
  ret void
}

; Function Attrs: nounwind sspstrong uwtable
define internal i64 @anonymous_struct(i64 noundef %0) #0 {
  %2 = alloca i64, align 8
  %3 = alloca i64, align 8
  store i64 %0, ptr %2, align 8, !tbaa !7
  call void @llvm.lifetime.start.p0(i64 8, ptr %3) #26
  %4 = load i64, ptr %2, align 8, !tbaa !7
  %5 = call i64 @rb_class_new(i64 noundef %4)
  store i64 %5, ptr %3, align 8, !tbaa !7
  %6 = load i64, ptr %3, align 8, !tbaa !7
  %7 = load i64, ptr %2, align 8, !tbaa !7
  %8 = inttoptr i64 %7 to ptr
  %9 = getelementptr inbounds nuw %struct.RBasic, ptr %8, i32 0, i32 1
  %10 = load i64, ptr %9, align 8, !tbaa !25
  %11 = call i64 @rb_make_metaclass(i64 noundef %6, i64 noundef %10)
  %12 = load i64, ptr %2, align 8, !tbaa !7
  %13 = load i64, ptr %3, align 8, !tbaa !7
  %14 = call i64 @rb_class_inherited(i64 noundef %12, i64 noundef %13)
  %15 = load i64, ptr %3, align 8, !tbaa !7
  call void @llvm.lifetime.end.p0(i64 8, ptr %3) #26
  ret i64 %15
}

; Function Attrs: inlinehint nounwind sspstrong willreturn memory(none) uwtable
define internal zeroext i1 @RB_TEST(i64 noundef %0) #3 {
  %2 = alloca i64, align 8
  store i64 %0, ptr %2, align 8, !tbaa !7
  %3 = load i64, ptr %2, align 8, !tbaa !7
  %4 = and i64 %3, -5
  %5 = icmp ne i64 %4, 0
  ret i1 %5
}

; Function Attrs: inlinehint nounwind sspstrong uwtable
define internal void @RBASIC_CLEAR_CLASS(i64 noundef %0) #1 {
  %2 = alloca i64, align 8
  store i64 %0, ptr %2, align 8, !tbaa !7
  %3 = load i64, ptr %2, align 8, !tbaa !7
  call void @RBASIC_SET_CLASS_RAW(i64 noundef %3, i64 noundef 0)
  ret void
}

; Function Attrs: nounwind sspstrong uwtable
define internal i64 @rb_data_s_def(i32 noundef %0, ptr noundef %1, i64 noundef %2) #0 {
  %4 = alloca i32, align 4
  %5 = alloca ptr, align 8
  %6 = alloca i64, align 8
  %7 = alloca i64, align 8
  %8 = alloca i64, align 8
  %9 = alloca i64, align 8
  %10 = alloca i64, align 8
  store i32 %0, ptr %4, align 4, !tbaa !11
  store ptr %1, ptr %5, align 8, !tbaa !28
  store i64 %2, ptr %6, align 8, !tbaa !7
  call void @llvm.lifetime.start.p0(i64 8, ptr %7) #26
  call void @llvm.lifetime.start.p0(i64 8, ptr %8) #26
  call void @llvm.lifetime.start.p0(i64 8, ptr %9) #26
  %11 = call i64 @rb_ident_hash_new()
  store i64 %11, ptr %7, align 8, !tbaa !7
  %12 = load i64, ptr %7, align 8, !tbaa !7
  call void @RBASIC_CLEAR_CLASS(i64 noundef %12)
  store i64 0, ptr %8, align 8, !tbaa !7
  br label %13

13:                                               ; preds = %42, %3
  %14 = load i64, ptr %8, align 8, !tbaa !7
  %15 = load i32, ptr %4, align 4, !tbaa !11
  %16 = sext i32 %15 to i64
  %17 = icmp slt i64 %14, %16
  br i1 %17, label %18, label %45

18:                                               ; preds = %13
  call void @llvm.lifetime.start.p0(i64 8, ptr %10) #26
  %19 = load ptr, ptr %5, align 8, !tbaa !28
  %20 = load i64, ptr %8, align 8, !tbaa !7
  %21 = getelementptr i64, ptr %19, i64 %20
  %22 = load i64, ptr %21, align 8, !tbaa !7
  %23 = call i64 @rb_to_symbol(i64 noundef %22)
  store i64 %23, ptr %10, align 8, !tbaa !7
  %24 = load i64, ptr %10, align 8, !tbaa !7
  %25 = call i32 @rb_is_attrset_sym(i64 noundef %24) #28
  %26 = icmp ne i32 %25, 0
  br i1 %26, label %27, label %30

27:                                               ; preds = %18
  %28 = load i64, ptr @rb_eArgError, align 8, !tbaa !7
  %29 = load i64, ptr %10, align 8, !tbaa !7
  call void (i64, ptr, ...) @rb_raise(i64 noundef %28, ptr noundef @.str.62, i64 noundef %29) #29
  unreachable

30:                                               ; preds = %18
  %31 = load i64, ptr %7, align 8, !tbaa !7
  %32 = load i64, ptr %10, align 8, !tbaa !7
  %33 = call i64 @rb_hash_has_key(i64 noundef %31, i64 noundef %32)
  %34 = call zeroext i1 @RB_TEST(i64 noundef %33) #27
  br i1 %34, label %35, label %38

35:                                               ; preds = %30
  %36 = load i64, ptr @rb_eArgError, align 8, !tbaa !7
  %37 = load i64, ptr %10, align 8, !tbaa !7
  call void (i64, ptr, ...) @rb_raise(i64 noundef %36, ptr noundef @.str.54, i64 noundef %37) #29
  unreachable

38:                                               ; preds = %30
  %39 = load i64, ptr %7, align 8, !tbaa !7
  %40 = load i64, ptr %10, align 8, !tbaa !7
  %41 = call i64 @rb_hash_aset(i64 noundef %39, i64 noundef %40, i64 noundef 20)
  call void @llvm.lifetime.end.p0(i64 8, ptr %10) #26
  br label %42

42:                                               ; preds = %38
  %43 = load i64, ptr %8, align 8, !tbaa !7
  %44 = add i64 %43, 1
  store i64 %44, ptr %8, align 8, !tbaa !7
  br label %13, !llvm.loop !51

45:                                               ; preds = %13
  %46 = load i64, ptr %7, align 8, !tbaa !7
  %47 = call i64 @rb_hash_keys(i64 noundef %46)
  store i64 %47, ptr %7, align 8, !tbaa !7
  %48 = load i64, ptr %7, align 8, !tbaa !7
  call void @RBASIC_CLEAR_CLASS(i64 noundef %48)
  %49 = load i64, ptr %7, align 8, !tbaa !7
  call void @rb_obj_freeze_inline(i64 noundef %49)
  %50 = load i64, ptr %6, align 8, !tbaa !7
  %51 = call i64 @anonymous_struct(i64 noundef %50)
  store i64 %51, ptr %9, align 8, !tbaa !7
  %52 = load i64, ptr %9, align 8, !tbaa !7
  %53 = load i64, ptr %7, align 8, !tbaa !7
  %54 = call i64 @setup_data(i64 noundef %52, i64 noundef %53)
  %55 = call i32 @rb_block_given_p()
  %56 = icmp ne i32 %55, 0
  br i1 %56, label %57, label %60

57:                                               ; preds = %45
  %58 = load i64, ptr %9, align 8, !tbaa !7
  %59 = call i64 @rb_mod_module_eval(i32 noundef 0, ptr noundef null, i64 noundef %58)
  br label %60

60:                                               ; preds = %57, %45
  %61 = load i64, ptr %9, align 8, !tbaa !7
  call void @llvm.lifetime.end.p0(i64 8, ptr %9) #26
  call void @llvm.lifetime.end.p0(i64 8, ptr %8) #26
  call void @llvm.lifetime.end.p0(i64 8, ptr %7) #26
  ret i64 %61
}