; Function Attrs: nounwind sspstrong uwtable
define internal noundef i64 @rb_data_s_def(i32 noundef %0, ptr noundef readonly captures(none) %1, i64 noundef %2) #0 {
  %4 = tail call i64 @rb_ident_hash_new() #19
  %5 = inttoptr i64 %4 to ptr
  %6 = getelementptr inbounds nuw i8, ptr %5, i64 8
  store i64 0, ptr %6, align 8, !tbaa !7
  %7 = sext i32 %0 to i64
  %8 = icmp sgt i32 %0, 0
  br i1 %8, label %.lr.ph, label %._crit_edge

.lr.ph:                                           ; preds = %3, %20
  %.023 = phi i64 [ %22, %20 ], [ 0, %3 ]
  %9 = getelementptr i64, ptr %1, i64 %.023
  %10 = load i64, ptr %9, align 8, !tbaa !7
  %11 = tail call i64 @rb_to_symbol(i64 noundef %10) #19
  %12 = tail call i32 @rb_is_attrset_sym(i64 noundef %11) #20
  %.not20 = icmp eq i32 %12, 0
  br i1 %.not20, label %15, label %13

13:                                               ; preds = %.lr.ph
  %14 = load i64, ptr @rb_eArgError, align 8, !tbaa !7
  tail call void (i64, ptr, ...) @rb_raise(i64 noundef %14, ptr noundef nonnull @.str.62, i64 noundef %11) #21
  unreachable

15:                                               ; preds = %.lr.ph
  %16 = tail call i64 @rb_hash_has_key(i64 noundef %4, i64 noundef %11) #19
  %17 = and i64 %16, -5
  %.not21 = icmp eq i64 %17, 0
  br i1 %.not21, label %20, label %18

18:                                               ; preds = %15
  %19 = load i64, ptr @rb_eArgError, align 8, !tbaa !7
  tail call void (i64, ptr, ...) @rb_raise(i64 noundef %19, ptr noundef nonnull @.str.54, i64 noundef %11) #21
  unreachable

20:                                               ; preds = %15
  %21 = tail call i64 @rb_hash_aset(i64 noundef %4, i64 noundef %11, i64 noundef 20) #19
  %22 = add nuw nsw i64 %.023, 1
  %exitcond.not = icmp eq i64 %22, %7
  br i1 %exitcond.not, label %._crit_edge, label %.lr.ph, !llvm.loop !52

._crit_edge:                                      ; preds = %20, %3
  %23 = tail call i64 @rb_hash_keys(i64 noundef %4) #19
  %24 = inttoptr i64 %23 to ptr
  %25 = getelementptr inbounds nuw i8, ptr %24, i64 8
  store i64 0, ptr %25, align 8, !tbaa !7
  tail call void @rb_obj_freeze_inline(i64 noundef %23) #19
  %26 = tail call i64 @rb_class_new(i64 noundef %2) #19
  %27 = inttoptr i64 %2 to ptr
  %28 = getelementptr inbounds nuw i8, ptr %27, i64 8
  %29 = load i64, ptr %28, align 8, !tbaa !26
  %30 = tail call i64 @rb_make_metaclass(i64 noundef %26, i64 noundef %29) #19
  %31 = tail call i64 @rb_class_inherited(i64 noundef %2, i64 noundef %26) #19
  %32 = tail call fastcc i64 @setup_data(i64 noundef %26, i64 noundef %23)
  %33 = tail call i32 @rb_block_given_p() #19
  %.not = icmp eq i32 %33, 0
  br i1 %.not, label %36, label %34

34:                                               ; preds = %._crit_edge
  %35 = tail call i64 @rb_mod_module_eval(i32 noundef 0, ptr noundef null, i64 noundef %26) #19
  br label %36

36:                                               ; preds = %34, %._crit_edge
  ret i64 %26
}